; Function Attrs: nounwind uwtable
define internal void @stream_change_cb_wrapper(ptr noundef readonly captures(none) %0, ptr noundef %1, ptr noundef %2, ptr noundef %3) #0 {
  %5 = alloca %struct.LogicalErrorCallbackState, align 8
  %6 = alloca %struct.ErrorContextCallback, align 8
  %7 = getelementptr inbounds nuw i8, ptr %0, i64 224
  %8 = load ptr, ptr %7, align 8
  call void @llvm.lifetime.start.p0(i64 24, ptr nonnull %5) #10
  call void @llvm.lifetime.start.p0(i64 24, ptr nonnull %6) #10
  store ptr %8, ptr %5, align 8
  %9 = getelementptr inbounds nuw i8, ptr %5, i64 8
  store ptr @.str.54, ptr %9, align 8
  %10 = load i64, ptr %3, align 8
  %11 = getelementptr inbounds nuw i8, ptr %5, i64 16
  store i64 %10, ptr %11, align 8
  %12 = getelementptr inbounds nuw i8, ptr %6, i64 8
  store ptr @output_plugin_error_callback, ptr %12, align 8
  %13 = getelementptr inbounds nuw i8, ptr %6, i64 16
  store ptr %5, ptr %13, align 8
  %14 = load ptr, ptr @error_context_stack, align 8
  store ptr %14, ptr %6, align 8
  store ptr %6, ptr @error_context_stack, align 8
  %15 = getelementptr inbounds nuw i8, ptr %8, i64 283
  store i8 1, ptr %15, align 1
  %16 = getelementptr inbounds nuw i8, ptr %1, i64 4
  %17 = load i32, ptr %16, align 4
  %18 = getelementptr inbounds nuw i8, ptr %8, i64 296
  store i32 %17, ptr %18, align 8
  %19 = load i64, ptr %3, align 8
  %20 = getelementptr inbounds nuw i8, ptr %8, i64 288
  store i64 %19, ptr %20, align 8
  %21 = getelementptr inbounds nuw i8, ptr %8, i64 300
  store i8 0, ptr %21, align 4
  %22 = getelementptr inbounds nuw i8, ptr %8, i64 192
  %23 = load ptr, ptr %22, align 8
  %24 = icmp eq ptr %23, null
  br i1 %24, label %25, label %29

25:                                               ; preds = %4
  %26 = call zeroext i1 @errstart_cold(i32 noundef 21, ptr noundef null) #11
  call void @llvm.assume(i1 %26)
  %27 = call i32 @errcode(i32 noundef 325) #10
  %28 = call i32 (ptr, ...) @errmsg(ptr noundef nonnull @.str.43, ptr noundef nonnull @.str.55) #10
  call void @errfinish(ptr noundef nonnull @.str.1, i32 noundef 1530, ptr noundef nonnull @__func__.stream_change_cb_wrapper) #10
  unreachable

29:                                               ; preds = %4
  call void %23(ptr noundef nonnull %8, ptr noundef nonnull %1, ptr noundef %2, ptr noundef nonnull %3) #10
  %30 = load ptr, ptr %6, align 8
  store ptr %30, ptr @error_context_stack, align 8
  call void @llvm.lifetime.end.p0(i64 24, ptr nonnull %6) #10
  call void @llvm.lifetime.end.p0(i64 24, ptr nonnull %5) #10
  ret void
}